
skiptrap.elf:     file format elf64-littleriscv


Disassembly of section .text:

0000000000000000 <__start>:
.equ SIM_CTRL_ADDR, 0x01fff000
.equ SIM_PASS_VALUE, 0x0000000444333222

__start:
    /* Install trap handler */
    la      t0, trap_handler
   0:	00000297          	auipc	t0,0x0
   4:	17028293          	addi	t0,t0,368 # 170 <trap_handler>
    csrw    mtvec, t0
   8:	30529073          	csrw	mtvec,t0

    /* Enable floating-point (set FS=Dirty) and clear FCSR */
    csrr    t0, mstatus
   c:	300022f3          	csrr	t0,mstatus
    li      t1, 0x00003000          /* FS field -> Dirty */
  10:	630d                	lui	t1,0x3
    or      t0, t0, t1
  12:	0062e2b3          	or	t0,t0,t1
    csrw    mstatus, t0
  16:	30029073          	csrw	mstatus,t0
    csrw    fcsr, x0
  1a:	00301073          	fscsr	zero

    j       user_code
  1e:	a009                	j	20 <regw_test>

0000000000000020 <regw_test>:

user_code:
    /* ---------------- Simple GPR write tests (for PC/value check) ------- */
regw_test:
    /* Load a few distinctive constants; each should emit a GPR write */
    li      a5, 0x00000000000000a5     /* x15 <- 0xA5 */
  20:	0a500793          	li	a5,165
    li      a6, 0x1122334455667788     /* x16 <- 0x1122334455667788 */
  24:	00449837          	lui	a6,0x449
  28:	8cd8081b          	addiw	a6,a6,-1843 # 4488cd <_stack_top+0x4088cd>
  2c:	083a                	slli	a6,a6,0xe
  2e:	45580813          	addi	a6,a6,1109
  32:	0832                	slli	a6,a6,0xc
  34:	66780813          	addi	a6,a6,1639
  38:	0832                	slli	a6,a6,0xc
  3a:	78880813          	addi	a6,a6,1928
    li      a7, 0xfedcba9876543210     /* x17 <- 0xFEDCBA9876543210 */
  3e:	fff6e8b7          	lui	a7,0xfff6e
  42:	5d58889b          	addiw	a7,a7,1493 # fffffffffff6e5d5 <SIM_PASS_VALUE+0xfffffffbbbc3b3b3>
  46:	08b2                	slli	a7,a7,0xc
  48:	c3b88893          	addi	a7,a7,-965
  4c:	08b6                	slli	a7,a7,0xd
  4e:	54388893          	addi	a7,a7,1347
  52:	08b2                	slli	a7,a7,0xc
  54:	21088893          	addi	a7,a7,528
    add     s0, a5, a5                 /* x8  <- 0x14A (0xA5 * 2) */
  58:	00f78433          	add	s0,a5,a5
    mv      s1, a6                     /* x9  <- 0x1122334455667788 */
  5c:	84c2                	mv	s1,a6
    addi    s2, a7, 1                  /* x18 <- 0xFEDCBA9876543211 */
  5e:	00188913          	addi	s2,a7,1

    /* ------------ Integer GPR writes + memory stores ------------- */
    li      s1, 0x1111111111111111
  62:	011114b7          	lui	s1,0x1111
  66:	1114849b          	addiw	s1,s1,273 # 1111111 <_stack_top+0x10d1111>
  6a:	04b2                	slli	s1,s1,0xc
  6c:	11148493          	addi	s1,s1,273
  70:	04b2                	slli	s1,s1,0xc
  72:	11148493          	addi	s1,s1,273
  76:	04b2                	slli	s1,s1,0xc
  78:	11148493          	addi	s1,s1,273
    li      s2, 0x2222222222222222
  7c:	01111937          	lui	s2,0x1111
  80:	1119091b          	addiw	s2,s2,273 # 1111111 <_stack_top+0x10d1111>
  84:	0932                	slli	s2,s2,0xc
  86:	11190913          	addi	s2,s2,273
  8a:	0932                	slli	s2,s2,0xc
  8c:	11190913          	addi	s2,s2,273
  90:	0936                	slli	s2,s2,0xd
  92:	22290913          	addi	s2,s2,546
    add     s3, s1, s2             /* = 0x3333... */
  96:	012489b3          	add	s3,s1,s2
    la      t0, buf
  9a:	1c000293          	li	t0,448
    sd      s3, 0(t0)              /* store 8B */
  9e:	0132b023          	sd	s3,0(t0)
    sh      s2, 8(t0)              /* store 2B */
  a2:	01229423          	sh	s2,8(t0)
    sb      s1, 10(t0)             /* store 1B */
  a6:	00928523          	sb	s1,10(t0)
    sw      s3, 12(t0)             /* store 4B */
  aa:	0132a623          	sw	s3,12(t0)

    /* ---------------- Floating-point writes + stores -------------- */
    /* f0 = 1.0, f1 = 2.0, f2 = 3.0, f3 = f1*f2 = 6.0 */
    li      t3, 0x3ff0000000000000 /* +1.0 in IEEE754 double */
  ae:	3ff00e1b          	addiw	t3,zero,1023
  b2:	1e52                	slli	t3,t3,0x34
    fmv.d.x f0, t3
  b4:	f20e0053          	fmv.d.x	ft0,t3
    fadd.d  f1, f0, f0
  b8:	020070d3          	fadd.d	ft1,ft0,ft0
    li      t3, 0x4008000000000000 /* +3.0 */
  bc:	6e05                	lui	t3,0x1
  be:	801e0e1b          	addiw	t3,t3,-2047 # 801 <buf+0x641>
  c2:	1e4e                	slli	t3,t3,0x33
    fmv.d.x f2, t3
  c4:	f20e0153          	fmv.d.x	ft2,t3
    fmul.d  f3, f1, f2
  c8:	1220f1d3          	fmul.d	ft3,ft1,ft2
    fsd     f1, 16(t0)
  cc:	0012b827          	fsd	ft1,16(t0)
    fsd     f3, 24(t0)
  d0:	0032bc27          	fsd	ft3,24(t0)

    /* ------------------------ Trap skipping ----------------------- */
    li      s0, 0                  /* counter for skipped insns */
  d4:	4401                	li	s0,0
  d6:	0000                	unimp
  d8:	0000                	unimp
    .word   0x00000000             /* illegal 32b insn */
    addi    s0, s0, 1
  da:	0405                	addi	s0,s0,1
  dc:	0000                	unimp
    .2byte  0x0000                 /* illegal 16b insn */
    addi    s0, s0, 1
  de:	0405                	addi	s0,s0,1
    li      t2, 2
  e0:	4389                	li	t2,2
    bne     s0, t2, fail
  e2:	06741563          	bne	s0,t2,14c <fail>

    /* More mixed stores after trap to enrich log */
    li      a0, 0xdeadbeefcafef00d
  e6:	fdeae537          	lui	a0,0xfdeae
  ea:	bef5051b          	addiw	a0,a0,-1041 # fffffffffdeadbef <SIM_PASS_VALUE+0xfffffffbb9b7a9cd>
  ee:	0532                	slli	a0,a0,0xc
  f0:	fcb50513          	addi	a0,a0,-53
  f4:	0532                	slli	a0,a0,0xc
  f6:	153d                	addi	a0,a0,-17
  f8:	0532                	slli	a0,a0,0xc
  fa:	0535                	addi	a0,a0,13
    sd      a0, 32(t0)
  fc:	02a2b023          	sd	a0,32(t0)
    li      a1, 0x7f
 100:	07f00593          	li	a1,127
    sb      a1, 40(t0)
 104:	02b28423          	sb	a1,40(t0)

    /* ---------------- AMO (simultaneous reg+mem) operations ---------------- */
    /* Prepare targets */
    la      t5, buf
 108:	1c000f13          	li	t5,448
    addi    t5, t5, 48            /* 8B-aligned slot */
 10c:	030f0f13          	addi	t5,t5,48
    li      t6, 0x10
 110:	4fc1                	li	t6,16
    sd      t6, 0(t5)
 112:	01ff3023          	sd	t6,0(t5)
    li      t2, 5
 116:	4395                	li	t2,5
    /* t3 <- old [t5]; [t5] += 5 */
    amoadd.d t3, t2, (t5)
 118:	007f3e2f          	amoadd.d	t3,t2,(t5)
    /* Now swap in 0x1234...; t4 gets old (which was 0x15) */
    li      t6, 0x123456789abcdef0
 11c:	00247fb7          	lui	t6,0x247
 120:	8adf8f9b          	addiw	t6,t6,-1875 # 2468ad <_stack_top+0x2068ad>
 124:	0fba                	slli	t6,t6,0xe
 126:	c4df8f93          	addi	t6,t6,-947
 12a:	0fb2                	slli	t6,t6,0xc
 12c:	5e7f8f93          	addi	t6,t6,1511
 130:	0fb6                	slli	t6,t6,0xd
 132:	ef0f8f93          	addi	t6,t6,-272
    amoswap.d t4, t6, (t5)
 136:	09ff3eaf          	amoswap.d	t4,t6,(t5)
    /* 32-bit AMO on 4B-aligned addr (t5+8) */
    addi    a2, t5, 8
 13a:	008f0613          	addi	a2,t5,8
    li      t1, 0x7
 13e:	431d                	li	t1,7
    sw      t1, 0(a2)
 140:	00662023          	sw	t1,0(a2)
    li      t1, 0x3
 144:	430d                	li	t1,3
    amoadd.w s5, t1, (a2)
 146:	00662aaf          	amoadd.w	s5,t1,(a2)

    j       exit
 14a:	a011                	j	14e <exit>

000000000000014c <fail>:

fail:
    j       fail
 14c:	a001                	j	14c <fail>

000000000000014e <exit>:

exit:
    /* Notify smart TB and park */
    li      t0, SIM_CTRL_ADDR
 14e:	01fff2b7          	lui	t0,0x1fff
    li      t1, SIM_PASS_VALUE
 152:	00444337          	lui	t1,0x444
 156:	3333031b          	addiw	t1,t1,819 # 444333 <_stack_top+0x404333>
 15a:	0332                	slli	t1,t1,0xc
 15c:	22230313          	addi	t1,t1,546
    sd      t1, 0(t0)
 160:	0062b023          	sd	t1,0(t0) # 1fff000 <SIM_CTRL_ADDR>
    fence
 164:	0ff0000f          	fence
1:
    wfi
 168:	10500073          	wfi
    j       1b
 16c:	bff5                	j	168 <exit+0x1a>
 16e:	0001                	nop

0000000000000170 <trap_handler>:

.align 2
trap_handler:
    csrr    t0, mepc            /* faulting PC */
 170:	341022f3          	csrr	t0,mepc
    csrr    t1, mcause
 174:	34202373          	csrr	t1,mcause
    csrr    t4, mtval
 178:	34302ef3          	csrr	t4,mtval

    slli    t5, t1, 1           /* clear interrupt bit */
 17c:	00131f13          	slli	t5,t1,0x1
    srli    t1, t5, 1
 180:	001f5313          	srli	t1,t5,0x1

    li      t2, 2               /* default len = 2 bytes */
 184:	4389                	li	t2,2

    li      t3, 2               /* illegal instruction */
 186:	4e09                	li	t3,2
    beq     t1, t3, decode_length
 188:	01c30a63          	beq	t1,t3,19c <decode_length>
    li      t3, 1               /* instruction access fault */
 18c:	4e05                	li	t3,1
    beq     t1, t3, update_mepc
 18e:	01c30f63          	beq	t1,t3,1ac <update_mepc>
    li      t3, 12              /* instruction page fault */
 192:	4e31                	li	t3,12
    beq     t1, t3, update_mepc
 194:	01c30c63          	beq	t1,t3,1ac <update_mepc>

    lhu     t4, 0(t0)           /* fetch encoding if mtval not useful */
 198:	0002de83          	lhu	t4,0(t0)

000000000000019c <decode_length>:

decode_length:
    andi    t4, t4, 3
 19c:	003efe93          	andi	t4,t4,3
    li      t3, 3
 1a0:	4e0d                	li	t3,3
    bne     t4, t3, compressed_len
 1a2:	01ce9463          	bne	t4,t3,1aa <compressed_len>
    li      t2, 4               /* standard 32-bit instruction */
 1a6:	4391                	li	t2,4
    j       update_mepc
 1a8:	a011                	j	1ac <update_mepc>

00000000000001aa <compressed_len>:

compressed_len:
    li      t2, 2               /* compressed instruction */
 1aa:	4389                	li	t2,2

00000000000001ac <update_mepc>:

update_mepc:
    add     t0, t0, t2
 1ac:	929e                	add	t0,t0,t2
    csrw    mepc, t0
 1ae:	34129073          	csrw	mepc,t0
    csrw    mcause, x0
 1b2:	34201073          	csrw	mcause,zero
    csrw    mtval, x0
 1b6:	34301073          	csrw	mtval,zero
    mret
 1ba:	30200073          	mret
 1be:	0001                	nop
