
skiptrap.elf:     file format elf64-littleriscv


Disassembly of section .text:

0000000000000000 <__start>:
.equ SIM_CTRL_ADDR, 0x01fff000
.equ SIM_PASS_VALUE, 0x0000000444333222

__start:
    /* Install trap handler */
    la      t0, trap_handler
   0:	00000297          	auipc	t0,0x0
   4:	17028293          	addi	t0,t0,368 # 170 <trap_handler>
    csrw    mtvec, t0
   8:	30529073          	csrw	mtvec,t0

    /* Enable floating-point (set FS=Dirty) and clear FCSR */
    csrr    t0, mstatus
   c:	300022f3          	csrr	t0,mstatus
    li      t1, 0x00003000          /* FS field -> Dirty */
  10:	630d                	lui	t1,0x3
    or      t0, t0, t1
  12:	0062e2b3          	or	t0,t0,t1
    csrw    mstatus, t0
  16:	30029073          	csrw	mstatus,t0
    csrw    fcsr, x0
  1a:	00301073          	fscsr	zero

    j       user_code
  1e:	a009                	j	20 <regw_test>

0000000000000020 <regw_test>:

user_code:
    /* ---------------- Simple GPR write tests (for PC/value check) ------- */
regw_test:
    /* Load a few distinctive constants; each should emit a GPR write */
    li      a5, 0x00000000000000a5     /* x15 <- 0xA5 */
  20:	0a500793          	li	a5,165
    li      a6, 0x1122334455667788     /* x16 <- 0x1122334455667788 */
  24:	00449837          	lui	a6,0x449
  28:	8cd8081b          	addiw	a6,a6,-1843 # 4488cd <_stack_top+0x4088cd>
  2c:	083a                	slli	a6,a6,0xe
  2e:	45580813          	addi	a6,a6,1109
  32:	0832                	slli	a6,a6,0xc
  34:	66780813          	addi	a6,a6,1639
  38:	0832                	slli	a6,a6,0xc
  3a:	78880813          	addi	a6,a6,1928
    li      a7, 0xfedcba9876543210     /* x17 <- 0xFEDCBA9876543210 */
  3e:	fff6e8b7          	lui	a7,0xfff6e
  42:	5d58889b          	addiw	a7,a7,1493 # fffffffffff6e5d5 <SIM_PASS_VALUE+0xfffffffbbbc3b3b3>
  46:	08b2                	slli	a7,a7,0xc
  48:	c3b88893          	addi	a7,a7,-965
  4c:	08b6                	slli	a7,a7,0xd
  4e:	54388893          	addi	a7,a7,1347
  52:	08b2                	slli	a7,a7,0xc
  54:	21088893          	addi	a7,a7,528
    add     s0, a5, a5                 /* x8  <- 0x14A (0xA5 * 2) */
  58:	00f78433          	add	s0,a5,a5
    mv      s1, a6                     /* x9  <- 0x1122334455667788 */
  5c:	84c2                	mv	s1,a6
    addi    s2, a7, 1                  /* x18 <- 0xFEDCBA9876543211 */
  5e:	00188913          	addi	s2,a7,1

    /* ------------ Integer GPR writes + memory stores ------------- */
    li      s1, 0x1111111111111111
  62:	011114b7          	lui	s1,0x1111
  66:	1114849b          	addiw	s1,s1,273 # 1111111 <_stack_top+0x10d1111>
  6a:	04b2                	slli	s1,s1,0xc
  6c:	11148493          	addi	s1,s1,273
  70:	04b2                	slli	s1,s1,0xc
  72:	11148493          	addi	s1,s1,273
  76:	04b2                	slli	s1,s1,0xc
  78:	11148493          	addi	s1,s1,273
    li      s2, 0x2222222222222222
  7c:	01111937          	lui	s2,0x1111
  80:	1119091b          	addiw	s2,s2,273 # 1111111 <_stack_top+0x10d1111>
  84:	0932                	slli	s2,s2,0xc
  86:	11190913          	addi	s2,s2,273
  8a:	0932                	slli	s2,s2,0xc
  8c:	11190913          	addi	s2,s2,273
  90:	0936                	slli	s2,s2,0xd
  92:	22290913          	addi	s2,s2,546
    add     s3, s1, s2             /* = 0x3333... */
  96:	012489b3          	add	s3,s1,s2
    la      t0, buf
  9a:	1c000293          	li	t0,448
    sd      s3, 0(t0)              /* store 8B */
  9e:	0132b023          	sd	s3,0(t0)
    sh      s2, 8(t0)              /* store 2B */
  a2:	01229423          	sh	s2,8(t0)
    sb      s1, 10(t0)             /* store 1B */
  a6:	00928523          	sb	s1,10(t0)
    sw      s3, 12(t0)             /* store 4B */
  aa:	0132a623          	sw	s3,12(t0)

    /* ---------------- Floating-point writes + stores -------------- */
    /* f0 = 1.0, f1 = 2.0, f2 = 3.0, f3 = f1*f2 = 6.0 */
    li      t3, 0x3ff0000000000000 /* +1.0 in IEEE754 double */
  ae:	3ff00e1b          	addiw	t3,zero,1023
  b2:	1e52                	slli	t3,t3,0x34
    fmv.d.x f0, t3
  b4:	f20e0053          	fmv.d.x	ft0,t3
    fadd.d  f1, f0, f0
  b8:	020070d3          	fadd.d	ft1,ft0,ft0
    li      t3, 0x4008000000000000 /* +3.0 */
  bc:	6e05                	lui	t3,0x1
  be:	801e0e1b          	addiw	t3,t3,-2047 # 801 <buf+0x641>
  c2:	1e4e                	slli	t3,t3,0x33
    fmv.d.x f2, t3
  c4:	f20e0153          	fmv.d.x	ft2,t3
    fmul.d  f3, f1, f2
  c8:	1220f1d3          	fmul.d	ft3,ft1,ft2
    fsd     f1, 16(t0)
  cc:	0012b827          	fsd	ft1,16(t0)
    fsd     f3, 24(t0)
  d0:	0032bc27          	fsd	ft3,24(t0)

    /* ------------------------ Trap skipping ----------------------- */
    li      s0, 0                  /* counter for skipped insns */
  d4:	4401                	li	s0,0
  d6:	0000                	unimp
  d8:	0000                	unimp
    .word   0x00000000             /* illegal 32b insn */
    addi    s0, s0, 1
  da:	0405                	addi	s0,s0,1
  dc:	0000                	unimp
    .2byte  0x0000                 /* illegal 16b insn */
    addi    s0, s0, 1
  de:	0405                	addi	s0,s0,1
    li      t2, 2
  e0:	4389                	li	t2,2
    bne     s0, t2, fail
  e2:	06741563          	bne	s0,t2,14c <fail>

    /* More mixed stores after trap to enrich log */
    li      a0, 0xdeadbeefcafef00d
  e6:	fdeae537          	lui	a0,0xfdeae
  ea:	bef5051b          	addiw	a0,a0,-1041 # fffffffffdeadbef <SIM_PASS_VALUE+0xfffffffbb9b7a9cd>
  ee:	0532                	slli	a0,a0,0xc
  f0:	fcb50513          	addi	a0,a0,-53
  f4:	0532                	slli	a0,a0,0xc
  f6:	153d                	addi	a0,a0,-17
  f8:	0532                	slli	a0,a0,0xc
  fa:	0535                	addi	a0,a0,13
    sd      a0, 32(t0)
  fc:	02a2b023          	sd	a0,32(t0)
    li      a1, 0x7f
 100:	07f00593          	li	a1,127
    sb      a1, 40(t0)
 104:	02b28423          	sb	a1,40(t0)

    /* ---------------- AMO (simultaneous reg+mem) operations ---------------- */
    /* Prepare targets */
    la      t5, buf
 108:	1c000f13          	li	t5,448
    addi    t5, t5, 48            /* 8B-aligned slot */
 10c:	030f0f13          	addi	t5,t5,48
    li      t6, 0x10
 110:	4fc1                	li	t6,16
    sd      t6, 0(t5)
 112:	01ff3023          	sd	t6,0(t5)
    li      t2, 5
 116:	4395                	li	t2,5
    /* t3 <- old [t5]; [t5] += 5 */
    amoadd.d t3, t2, (t5)
 118:	007f3e2f          	amoadd.d	t3,t2,(t5)
    /* Now swap in 0x1234...; t4 gets old (which was 0x15) */
    li      t6, 0x123456789abcdef0
 11c:	00247fb7          	lui	t6,0x247
 120:	8adf8f9b          	addiw	t6,t6,-1875 # 2468ad <_stack_top+0x2068ad>
 124:	0fba                	slli	t6,t6,0xe
 126:	c4df8f93          	addi	t6,t6,-947
 12a:	0fb2                	slli	t6,t6,0xc
 12c:	5e7f8f93          	addi	t6,t6,1511
 130:	0fb6                	slli	t6,t6,0xd
 132:	ef0f8f93          	addi	t6,t6,-272
    amoswap.d t4, t6, (t5)
 136:	09ff3eaf          	amoswap.d	t4,t6,(t5)
    /* 32-bit AMO on 4B-aligned addr (t5+8) */
    addi    a2, t5, 8
 13a:	008f0613          	addi	a2,t5,8
    li      t1, 0x7
 13e:	431d                	li	t1,7
    sw      t1, 0(a2)
 140:	00662023          	sw	t1,0(a2)
    li      t1, 0x3
 144:	430d                	li	t1,3
    amoadd.w s5, t1, (a2)
 146:	00662aaf          	amoadd.w	s5,t1,(a2)

    j       exit
 14a:	a011                	j	14e <exit>

000000000000014c <fail>:

fail:
    j       fail
 14c:	a001                	j	14c <fail>

000000000000014e <exit>:

exit:
    /* Notify smart TB and park */
    li      t0, SIM_CTRL_ADDR
 14e:	01fff2b7          	lui	t0,0x1fff
    li      t1, SIM_PASS_VALUE
 152:	00444337          	lui	t1,0x444
 156:	3333031b          	addiw	t1,t1,819 # 444333 <_stack_top+0x404333>
 15a:	0332                	slli	t1,t1,0xc
 15c:	22230313          	addi	t1,t1,546
    sd      t1, 0(t0)
 160:	0062b023          	sd	t1,0(t0) # 1fff000 <SIM_CTRL_ADDR>
    fence
 164:	0ff0000f          	fence
1:
    wfi
 168:	10500073          	wfi
    j       1b
 16c:	bff5                	j	168 <exit+0x1a>
 16e:	0001                	nop

0000000000000170 <trap_handler>:

.align 2
trap_handler:
    csrr    t0, mepc            /* faulting PC */
 170:	341022f3          	csrr	t0,mepc
    csrr    t1, mcause
 174:	34202373          	csrr	t1,mcause
    csrr    t4, mtval
 178:	34302ef3          	csrr	t4,mtval

    slli    t5, t1, 1           /* clear interrupt bit */
 17c:	00131f13          	slli	t5,t1,0x1
    srli    t1, t5, 1
 180:	001f5313          	srli	t1,t5,0x1

    li      t2, 2               /* default len = 2 bytes */
 184:	4389                	li	t2,2

    li      t3, 2               /* illegal instruction */
 186:	4e09                	li	t3,2
    beq     t1, t3, decode_length
 188:	01c30a63          	beq	t1,t3,19c <decode_length>
    li      t3, 1               /* instruction access fault */
 18c:	4e05                	li	t3,1
    beq     t1, t3, update_mepc
 18e:	01c30f63          	beq	t1,t3,1ac <update_mepc>
    li      t3, 12              /* instruction page fault */
 192:	4e31                	li	t3,12
    beq     t1, t3, update_mepc
 194:	01c30c63          	beq	t1,t3,1ac <update_mepc>

    lhu     t4, 0(t0)           /* fetch encoding if mtval not useful */
 198:	0002de83          	lhu	t4,0(t0)

000000000000019c <decode_length>:

decode_length:
    andi    t4, t4, 3
 19c:	003efe93          	andi	t4,t4,3
    li      t3, 3
 1a0:	4e0d                	li	t3,3
    bne     t4, t3, compressed_len
 1a2:	01ce9463          	bne	t4,t3,1aa <compressed_len>
    li      t2, 4               /* standard 32-bit instruction */
 1a6:	4391                	li	t2,4
    j       update_mepc
 1a8:	a011                	j	1ac <update_mepc>

00000000000001aa <compressed_len>:

compressed_len:
    li      t2, 2               /* compressed instruction */
 1aa:	4389                	li	t2,2

00000000000001ac <update_mepc>:

update_mepc:
    add     t0, t0, t2
 1ac:	929e                	add	t0,t0,t2
    csrw    mepc, t0
 1ae:	34129073          	csrw	mepc,t0
    csrw    mcause, x0
 1b2:	34201073          	csrw	mcause,zero
    csrw    mtval, x0
 1b6:	34301073          	csrw	mtval,zero
    mret
 1ba:	30200073          	mret
 1be:	0001                	nop

Disassembly of section .data:

00000000000001c0 <buf>:
	...

Disassembly of section .riscv.attributes:

0000000000000000 <.riscv.attributes>:
    la      t0, trap_handler
   0:	7541                	lui	a0,0xffff0
   2:	0000                	unimp
   4:	7200                	ld	s0,32(a2)
   6:	7369                	lui	t1,0xffffa
    csrw    mtvec, t0
   8:	01007663          	bgeu	zero,a6,14 <__start+0x14>
    csrr    t0, mstatus
   c:	0000006b          	.insn	4, 0x006b
    li      t1, 0x00003000          /* FS field -> Dirty */
  10:	7205                	lui	tp,0xfffe1
    or      t0, t0, t1
  12:	3676                	fld	fa2,376(sp)
  14:	6934                	ld	a3,80(a0)
    csrw    mstatus, t0
  16:	7032                	.insn	2, 0x7032
  18:	5f31                	li	t5,-20
    csrw    fcsr, x0
  1a:	326d                	addiw	tp,tp,-5 # fffffffffffe0ffb <SIM_PASS_VALUE+0xfffffffbbbcaddd9>
  1c:	3070                	fld	fa2,224(s0)
    j       user_code
  1e:	615f 7032 5f31      	.insn	6, 0x5f317032615f
    li      a6, 0x1122334455667788     /* x16 <- 0x1122334455667788 */
  24:	3266                	fld	ft4,120(sp)
  26:	3270                	fld	fa2,224(a2)
  28:	645f 7032 5f32      	.insn	6, 0x5f327032645f
  2e:	30703263          	.insn	4, 0x30703263
  32:	7a5f 6369 7273      	.insn	6, 0x727363697a5f
  38:	7032                	.insn	2, 0x7032
  3a:	5f30                	lw	a2,120(a4)
  3c:	697a                	ld	s2,408(sp)
    li      a7, 0xfedcba9876543210     /* x17 <- 0xFEDCBA9876543210 */
  3e:	6566                	ld	a0,88(sp)
  40:	636e                	ld	t1,216(sp)
  42:	6965                	lui	s2,0x19
  44:	7032                	.insn	2, 0x7032
  46:	5f30                	lw	a2,120(a4)
  48:	6d7a                	ld	s10,408(sp)
  4a:	756d                	lui	a0,0xffffb
  4c:	316c                	fld	fa1,224(a0)
  4e:	3070                	fld	fa2,224(s0)
  50:	7a5f 6161 6f6d      	.insn	6, 0x6f6d61617a5f
  56:	7031                	c.lui	zero,0xfffec
    add     s0, a5, a5                 /* x8  <- 0x14A (0xA5 * 2) */
  58:	5f30                	lw	a2,120(a4)
  5a:	617a                	ld	sp,408(sp)
    mv      s1, a6                     /* x9  <- 0x1122334455667788 */
  5c:	726c                	ld	a1,224(a2)
    addi    s2, a7, 1                  /* x18 <- 0xFEDCBA9876543211 */
  5e:	70316373          	csrrsi	t1,0x703,2
    li      s1, 0x1111111111111111
  62:	5f30                	lw	a2,120(a4)
  64:	637a                	ld	t1,408(sp)
  66:	3161                	addiw	sp,sp,-8
  68:	3070                	fld	fa2,224(s0)
  6a:	7a5f 6463 7031      	.insn	6, 0x703164637a5f
  70:	0030                	addi	a2,sp,8
  72:	0108                	addi	a0,sp,128
  74:	0b0a                	slli	s6,s6,0x2

Disassembly of section .debug_line:

0000000000000000 <.debug_line>:
    la      t0, trap_handler
   0:	0238                	addi	a4,sp,264
   2:	0000                	unimp
   4:	0005                	c.nop	1
   6:	0008                	.insn	2, 0x0008
    csrw    mtvec, t0
   8:	002a                	c.slli	zero,0xa
   a:	0000                	unimp
    csrr    t0, mstatus
   c:	0101                	addi	sp,sp,0
   e:	fb01                	bnez	a4,ffffffffffffff1e <SIM_PASS_VALUE+0xfffffffbbbccccfc>
    li      t1, 0x00003000          /* FS field -> Dirty */
  10:	0d0e                	slli	s10,s10,0x3
    or      t0, t0, t1
  12:	0100                	addi	s0,sp,128
  14:	0101                	addi	sp,sp,0
    csrw    mstatus, t0
  16:	0001                	nop
  18:	0000                	unimp
    csrw    fcsr, x0
  1a:	0001                	nop
  1c:	0100                	addi	s0,sp,128
    j       user_code
  1e:	0101                	addi	sp,sp,0
    li      a5, 0x00000000000000a5     /* x15 <- 0xA5 */
  20:	011f 0000 0000      	.insn	6, 0x011f
    li      a6, 0x1122334455667788     /* x16 <- 0x1122334455667788 */
  26:	0102                	c.slli64	sp
  28:	021f 020f 0028      	.insn	6, 0x0028020f021f
  2e:	0000                	unimp
  30:	2800                	fld	fs0,16(s0)
  32:	0000                	unimp
  34:	0000                	unimp
  36:	0900                	addi	s0,sp,144
  38:	0002                	c.slli64	zero
  3a:	0000                	unimp
  3c:	0000                	unimp
    li      a7, 0xfedcba9876543210     /* x17 <- 0xFEDCBA9876543210 */
  3e:	0000                	unimp
  40:	0300                	addi	s0,sp,384
  42:	0115                	addi	sp,sp,5
  44:	08090103          	lb	sp,128(s2) # 19080 <buf+0x18ec0>
  48:	0100                	addi	s0,sp,128
  4a:	04090303          	lb	t1,64(s2)
  4e:	0100                	addi	s0,sp,128
  50:	04090103          	lb	sp,64(s2)
  54:	0100                	addi	s0,sp,128
  56:	02090103          	lb	sp,32(s2)
    add     s0, a5, a5                 /* x8  <- 0x14A (0xA5 * 2) */
  5a:	0100                	addi	s0,sp,128
    mv      s1, a6                     /* x9  <- 0x1122334455667788 */
  5c:	04090103          	lb	sp,64(s2)
    addi    s2, a7, 1                  /* x18 <- 0xFEDCBA9876543211 */
  60:	0100                	addi	s0,sp,128
    li      s1, 0x1111111111111111
  62:	04090103          	lb	sp,64(s2)
  66:	0100                	addi	s0,sp,128
  68:	04090203          	lb	tp,64(s2)
  6c:	0100                	addi	s0,sp,128
  6e:	02090603          	lb	a2,32(s2)
  72:	0100                	addi	s0,sp,128
  74:	04090103          	lb	sp,64(s2)
  78:	0100                	addi	s0,sp,128
  7a:	1a090103          	lb	sp,416(s2)
    li      s2, 0x2222222222222222
  7e:	0100                	addi	s0,sp,128
  80:	1a090103          	lb	sp,416(s2)
  84:	0100                	addi	s0,sp,128
  86:	04090103          	lb	sp,64(s2)
  8a:	0100                	addi	s0,sp,128
  8c:	02090103          	lb	sp,32(s2)
  90:	0100                	addi	s0,sp,128
  92:	04090303          	lb	t1,64(s2)
    add     s3, s1, s2             /* = 0x3333... */
  96:	0100                	addi	s0,sp,128
  98:	1a090103          	lb	sp,416(s2)
    la      t0, buf
  9c:	0100                	addi	s0,sp,128
    sd      s3, 0(t0)              /* store 8B */
  9e:	1a090103          	lb	sp,416(s2)
    sh      s2, 8(t0)              /* store 2B */
  a2:	0100                	addi	s0,sp,128
  a4:	04090103          	lb	sp,64(s2)
    sb      s1, 10(t0)             /* store 1B */
  a8:	0100                	addi	s0,sp,128
    sw      s3, 12(t0)             /* store 4B */
  aa:	04090103          	lb	sp,64(s2)
    li      t3, 0x3ff0000000000000 /* +1.0 in IEEE754 double */
  ae:	0100                	addi	s0,sp,128
  b0:	04090103          	lb	sp,64(s2)
    fmv.d.x f0, t3
  b4:	0100                	addi	s0,sp,128
  b6:	04090103          	lb	sp,64(s2)
    fadd.d  f1, f0, f0
  ba:	0100                	addi	s0,sp,128
    li      t3, 0x4008000000000000 /* +3.0 */
  bc:	04090103          	lb	sp,64(s2)
  c0:	0100                	addi	s0,sp,128
  c2:	04090403          	lb	s0,64(s2)
    fmv.d.x f2, t3
  c6:	0100                	addi	s0,sp,128
    fmul.d  f3, f1, f2
  c8:	06090103          	lb	sp,96(s2)
    fsd     f1, 16(t0)
  cc:	0100                	addi	s0,sp,128
  ce:	04090103          	lb	sp,64(s2)
    fsd     f3, 24(t0)
  d2:	0100                	addi	s0,sp,128
    li      s0, 0                  /* counter for skipped insns */
  d4:	04090103          	lb	sp,64(s2)
  d8:	0100                	addi	s0,sp,128
    addi    s0, s0, 1
  da:	08090103          	lb	sp,128(s2)
    addi    s0, s0, 1
  de:	0100                	addi	s0,sp,128
    li      t2, 2
  e0:	04090103          	lb	sp,64(s2)
    bne     s0, t2, fail
  e4:	0100                	addi	s0,sp,128
    li      a0, 0xdeadbeefcafef00d
  e6:	04090103          	lb	sp,64(s2)
  ea:	0100                	addi	s0,sp,128
  ec:	04090103          	lb	sp,64(s2)
  f0:	0100                	addi	s0,sp,128
  f2:	04090303          	lb	t1,64(s2)
  f6:	0100                	addi	s0,sp,128
  f8:	06090203          	lb	tp,96(s2)
    sd      a0, 32(t0)
  fc:	0100                	addi	s0,sp,128
  fe:	04090203          	lb	tp,64(s2)
    li      a1, 0x7f
 102:	0100                	addi	s0,sp,128
    sb      a1, 40(t0)
 104:	02090103          	lb	sp,32(s2)
    la      t5, buf
 108:	0100                	addi	s0,sp,128
 10a:	02090103          	lb	sp,32(s2)
    addi    t5, t5, 48            /* 8B-aligned slot */
 10e:	0100                	addi	s0,sp,128
    li      t6, 0x10
 110:	04090303          	lb	t1,64(s2)
    sd      t6, 0(t5)
 114:	0100                	addi	s0,sp,128
    li      t2, 5
 116:	16090103          	lb	sp,352(s2)
    amoadd.d t3, t2, (t5)
 11a:	0100                	addi	s0,sp,128
    li      t6, 0x123456789abcdef0
 11c:	04090103          	lb	sp,64(s2)
 120:	0100                	addi	s0,sp,128
 122:	04090103          	lb	sp,64(s2)
 126:	0100                	addi	s0,sp,128
 128:	04090403          	lb	s0,64(s2)
 12c:	0100                	addi	s0,sp,128
 12e:	04090103          	lb	sp,64(s2)
 132:	0100                	addi	s0,sp,128
 134:	04090103          	lb	sp,64(s2)
    amoswap.d t4, t6, (t5)
 138:	0100                	addi	s0,sp,128
    addi    a2, t5, 8
 13a:	02090103          	lb	sp,32(s2)
    li      t1, 0x7
 13e:	0100                	addi	s0,sp,128
    sw      t1, 0(a2)
 140:	04090103          	lb	sp,64(s2)
    li      t1, 0x3
 144:	0100                	addi	s0,sp,128
    amoadd.w s5, t1, (a2)
 146:	02090203          	lb	tp,32(s2)
    j       exit
 14a:	0100                	addi	s0,sp,128
    j       fail
 14c:	04090203          	lb	tp,64(s2)
    li      t0, SIM_CTRL_ADDR
 150:	0100                	addi	s0,sp,128
    li      t1, SIM_PASS_VALUE
 152:	1a090103          	lb	sp,416(s2)
 156:	0100                	addi	s0,sp,128
 158:	04090203          	lb	tp,64(s2)
 15c:	0100                	addi	s0,sp,128
 15e:	04090103          	lb	sp,64(s2)
    sd      t1, 0(t0)
 162:	0100                	addi	s0,sp,128
    fence
 164:	02090103          	lb	sp,32(s2)
    wfi
 168:	0100                	addi	s0,sp,128
 16a:	04090103          	lb	sp,64(s2)
    j       1b
 16e:	0100                	addi	s0,sp,128
    csrr    t0, mepc            /* faulting PC */
 170:	02090103          	lb	sp,32(s2)
    csrr    t1, mcause
 174:	0100                	addi	s0,sp,128
 176:	04090203          	lb	tp,64(s2)
    csrr    t4, mtval
 17a:	0100                	addi	s0,sp,128
    slli    t5, t1, 1           /* clear interrupt bit */
 17c:	02090303          	lb	t1,32(s2)
    srli    t1, t5, 1
 180:	0100                	addi	s0,sp,128
 182:	02090403          	lb	s0,32(s2)
    li      t3, 2               /* illegal instruction */
 186:	0100                	addi	s0,sp,128
    beq     t1, t3, decode_length
 188:	04090103          	lb	sp,64(s2)
    li      t3, 1               /* instruction access fault */
 18c:	0100                	addi	s0,sp,128
    beq     t1, t3, update_mepc
 18e:	0e090103          	lb	sp,224(s2)
    li      t3, 12              /* instruction page fault */
 192:	0100                	addi	s0,sp,128
    beq     t1, t3, update_mepc
 194:	04090103          	lb	sp,64(s2)
    lhu     t4, 0(t0)           /* fetch encoding if mtval not useful */
 198:	0100                	addi	s0,sp,128
 19a:	04090203          	lb	tp,64(s2)
    andi    t4, t4, 3
 19e:	0100                	addi	s0,sp,128
    li      t3, 3
 1a0:	04090103          	lb	sp,64(s2)
    bne     t4, t3, compressed_len
 1a4:	0100                	addi	s0,sp,128
    li      t2, 4               /* standard 32-bit instruction */
 1a6:	04090403          	lb	s0,64(s2)
    li      t2, 2               /* compressed instruction */
 1aa:	0100                	addi	s0,sp,128
    add     t0, t0, t2
 1ac:	04090103          	lb	sp,64(s2)
    csrw    mepc, t0
 1b0:	0100                	addi	s0,sp,128
    csrw    mcause, x0
 1b2:	04090103          	lb	sp,64(s2)
    csrw    mtval, x0
 1b6:	0100                	addi	s0,sp,128
 1b8:	04090203          	lb	tp,64(s2)
    mret
 1bc:	0100                	addi	s0,sp,128
 1be:	04090103          	lb	sp,64(s2)
 1c2:	0100                	addi	s0,sp,128
 1c4:	04090203          	lb	tp,64(s2)
 1c8:	0100                	addi	s0,sp,128
 1ca:	02090203          	lb	tp,32(s2)
 1ce:	0100                	addi	s0,sp,128
 1d0:	02090103          	lb	sp,32(s2)
 1d4:	0100                	addi	s0,sp,128
 1d6:	04090103          	lb	sp,64(s2)
 1da:	0100                	addi	s0,sp,128
 1dc:	02090103          	lb	sp,32(s2)
 1e0:	0100                	addi	s0,sp,128
 1e2:	04090103          	lb	sp,64(s2)
 1e6:	0100                	addi	s0,sp,128
 1e8:	02090103          	lb	sp,32(s2)
 1ec:	0100                	addi	s0,sp,128
 1ee:	04090203          	lb	tp,64(s2)
 1f2:	0100                	addi	s0,sp,128
 1f4:	04090303          	lb	t1,64(s2)
 1f8:	0100                	addi	s0,sp,128
 1fa:	04090103          	lb	sp,64(s2)
 1fe:	0100                	addi	s0,sp,128
 200:	02090103          	lb	sp,32(s2)
 204:	0100                	addi	s0,sp,128
 206:	04090103          	lb	sp,64(s2)
 20a:	0100                	addi	s0,sp,128
 20c:	02090103          	lb	sp,32(s2)
 210:	0100                	addi	s0,sp,128
 212:	02090303          	lb	t1,32(s2)
 216:	0100                	addi	s0,sp,128
 218:	02090303          	lb	t1,32(s2)
 21c:	0100                	addi	s0,sp,128
 21e:	02090103          	lb	sp,32(s2)
 222:	0100                	addi	s0,sp,128
 224:	04090103          	lb	sp,64(s2)
 228:	0100                	addi	s0,sp,128
 22a:	04090103          	lb	sp,64(s2)
 22e:	0100                	addi	s0,sp,128
 230:	04090103          	lb	sp,64(s2)
 234:	0100                	addi	s0,sp,128
 236:	0409                	addi	s0,s0,2
 238:	0000                	unimp
 23a:	0101                	addi	sp,sp,0

Disassembly of section .debug_line_str:

0000000000000000 <.debug_line_str>:
    la      t0, trap_handler
   0:	6d6f682f          	.insn	4, 0x6d6f682f
   4:	2f65                	addiw	t5,t5,25
   6:	786e6163          	bltu	t3,t1,788 <buf+0x5c8>
    csrw    mtvec, t0
   a:	6e69                	lui	t3,0x1a
    csrr    t0, mstatus
   c:	65706f2f          	.insn	4, 0x65706f2f
    li      t1, 0x00003000          /* FS field -> Dirty */
  10:	636e                	ld	t1,216(sp)
    or      t0, t0, t1
  12:	3139                	addiw	sp,sp,-18
  14:	2f30                	fld	fa2,88(a4)
    csrw    mstatus, t0
  16:	74666f73          	csrrsi	t5,0x746,12
    csrw    fcsr, x0
  1a:	65726177          	.insn	4, 0x65726177
    j       user_code
  1e:	696b732f          	.insn	4, 0x696b732f
    li      a5, 0x00000000000000a5     /* x15 <- 0xA5 */
  22:	7470                	ld	a2,232(s0)
    li      a6, 0x1122334455667788     /* x16 <- 0x1122334455667788 */
  24:	6172                	ld	sp,280(sp)
  26:	0070                	addi	a2,sp,12
  28:	70696b73          	csrrsi	s6,0x706,18
  2c:	7274                	ld	a3,224(a2)
  2e:	7061                	c.lui	zero,0xffff8
  30:	532e                	lw	t1,232(sp)
	...

Disassembly of section .debug_info:

0000000000000000 <.debug_info>:
    la      t0, trap_handler
   0:	0025                	c.nop	9
   2:	0000                	unimp
   4:	0005                	c.nop	1
   6:	0801                	addi	a6,a6,0
    csrw    mtvec, t0
   8:	0000                	unimp
   a:	0000                	unimp
    csrr    t0, mstatus
   c:	0001                	nop
	...
    csrw    mstatus, t0
  16:	0000                	unimp
  18:	c600                	sw	s0,8(a2)
    csrw    fcsr, x0
  1a:	00000003          	lb	zero,0(zero) # 0 <__start>
    j       user_code
  1e:	0b00                	addi	s0,sp,400
    li      a5, 0x00000000000000a5     /* x15 <- 0xA5 */
  20:	0000                	unimp
  22:	3300                	fld	fs0,32(a4)
    li      a6, 0x1122334455667788     /* x16 <- 0x1122334455667788 */
  24:	0000                	unimp
  26:	0100                	addi	s0,sp,128
  28:	80                	.byte	0x80

Disassembly of section .debug_abbrev:

0000000000000000 <.debug_abbrev>:
    la      t0, trap_handler
   0:	1101                	addi	sp,sp,-32
   2:	1000                	addi	s0,sp,32
   4:	12011117          	auipc	sp,0x12011
    csrw    mtvec, t0
   8:	1b0e030f          	.insn	4, 0x1b0e030f
    csrr    t0, mstatus
   c:	250e                	fld	fa0,192(sp)
   e:	130e                	slli	t1,t1,0x23
    li      t1, 0x00003000          /* FS field -> Dirty */
  10:	0005                	c.nop	1
	...

Disassembly of section .debug_aranges:

0000000000000000 <.debug_aranges>:
    la      t0, trap_handler
   0:	002c                	addi	a1,sp,8
   2:	0000                	unimp
   4:	0002                	c.slli64	zero
   6:	0000                	unimp
    csrw    mtvec, t0
   8:	0000                	unimp
   a:	0008                	.insn	2, 0x0008
	...
    csrw    mstatus, t0
  18:	01be                	slli	gp,gp,0xf
	...

Disassembly of section .debug_str:

0000000000000000 <.debug_str>:
    la      t0, trap_handler
   0:	70696b73          	csrrsi	s6,0x706,18
   4:	7274                	ld	a3,224(a2)
   6:	7061                	c.lui	zero,0xffff8
    csrw    mtvec, t0
   8:	532e                	lw	t1,232(sp)
   a:	2f00                	fld	fs0,24(a4)
    csrr    t0, mstatus
   c:	6f68                	ld	a0,216(a4)
   e:	656d                	lui	a0,0x1b
    li      t1, 0x00003000          /* FS field -> Dirty */
  10:	6e61632f          	.insn	4, 0x6e61632f
    or      t0, t0, t1
  14:	6978                	ld	a4,208(a0)
    csrw    mstatus, t0
  16:	2f6e                	fld	ft10,216(sp)
  18:	6e65706f          	j	576fe <_stack_top+0x176fe>
    csrw    fcsr, x0
  1c:	30313963          	.insn	4, 0x30313963
    li      a5, 0x00000000000000a5     /* x15 <- 0xA5 */
  20:	666f732f          	.insn	4, 0x666f732f
    li      a6, 0x1122334455667788     /* x16 <- 0x1122334455667788 */
  24:	7774                	ld	a3,232(a4)
  26:	7261                	lui	tp,0xffff8
  28:	2f65                	addiw	t5,t5,25
  2a:	70696b73          	csrrsi	s6,0x706,18
  2e:	7274                	ld	a3,224(a2)
  30:	7061                	c.lui	zero,0xffff8
  32:	4700                	lw	s0,8(a4)
  34:	554e                	lw	a0,240(sp)
  36:	4120                	lw	s0,64(a0)
  38:	2e322053          	.insn	4, 0x2e322053
  3c:	3534                	fld	fa3,104(a0)
	...
